; Function Attrs: nounwind uwtable
define dso_local i32 @Curl_http_write_resp(ptr noundef %0, ptr noundef %1, i64 noundef %2, i1 noundef zeroext %3) #0 {
  %5 = alloca i64, align 8
  call void @llvm.lifetime.start.p0(i64 8, ptr nonnull %5) #11
  %6 = call i32 @Curl_http_write_resp_hds(ptr noundef %0, ptr noundef %1, i64 noundef %2, ptr noundef nonnull %5)
  %.not = icmp eq i32 %6, 0
  br i1 %.not, label %7, label %18

7:                                                ; preds = %4
  %8 = getelementptr inbounds nuw i8, ptr %0, i64 449
  %9 = load i32, ptr %8, align 1
  %10 = and i32 %9, 2
  %.not18 = icmp eq i32 %10, 0
  br i1 %.not18, label %11, label %18

11:                                               ; preds = %7
  %12 = load i64, ptr %5, align 8, !tbaa !114
  %13 = and i32 %9, 1
  %.not19 = icmp eq i32 %13, 0
  %.not20 = icmp ne i64 %2, %12
  %brmerge = or i1 %3, %.not20
  %or.cond = select i1 %.not19, i1 %brmerge, i1 false
  br i1 %or.cond, label %14, label %18

14:                                               ; preds = %11
  %15 = getelementptr inbounds nuw i8, ptr %1, i64 %12
  %16 = sub i64 %2, %12
  %spec.select = select i1 %3, i32 129, i32 1
  %17 = tail call i32 @Curl_client_write(ptr noundef nonnull %0, i32 noundef %spec.select, ptr noundef %15, i64 noundef %16) #11
  br label %18

18:                                               ; preds = %11, %14, %4, %7
  %.016 = phi i32 [ %6, %4 ], [ 0, %7 ], [ 0, %11 ], [ %17, %14 ]
  call void @llvm.lifetime.end.p0(i64 8, ptr nonnull %5) #11
  ret i32 %.016
}